target datalayout = "e-m:e-p270:32:32-p271:32:32-p272:64:64-i64:64-i128:128-f80:128-n8:16:32:64-S128"
target triple = "x86_64-pc-linux-gnu"

; Function Attrs: mustprogress nounwind uwtable
define linkonce_odr dso_local void @_ZN8TestCaseIN32pxrInternal_v0_24__pxrReserved__7VtArrayINS0_17SdfPathExpressionEEEE11AddTestCaseERKNS0_7UsdPrimE(ptr noundef nonnull align 8 dereferenceable(32) %0) #1 comdat align 2 {
  %2 = alloca ptr, align 8
  store ptr %0, ptr %2, align 8
  ret void
}

; Function Attrs: mustprogress nounwind uwtable
define linkonce_odr dso_local void @_ZN8TestCaseIN32pxrInternal_v0_24__pxrReserved__7VtArrayINS0_14SdfOpaqueValueEEEE11AddTestCaseERKNS0_7UsdPrimE(ptr noundef nonnull align 8 dereferenceable(32) %0) #1 comdat align 2 {
  %2 = alloca ptr, align 8
  store ptr %0, ptr %2, align 8
  ret void
}

; Function Attrs: mustprogress uwtable
define internal noundef i64 @_ZL18AddTestCasesToPrimRKN32pxrInternal_v0_24__pxrReserved__7UsdPrimE(ptr noundef nonnull align 8 dereferenceable(32) %0) #2 {
  %2 = alloca ptr, align 8
  %3 = alloca i64, align 8
  store ptr %0, ptr %2, align 8
  store i64 0, ptr %3, align 8
  %4 = load ptr, ptr %2, align 8
  call void @_ZN8TestCaseIbE11AddTestCaseERKN32pxrInternal_v0_24__pxrReserved__7UsdPrimE(ptr noundef nonnull align 8 dereferenceable(32) %4)
  %5 = load ptr, ptr %2, align 8
  call void @_ZN8TestCaseIN32pxrInternal_v0_24__pxrReserved__7VtArrayIbEEE11AddTestCaseERKNS0_7UsdPrimE(ptr noundef nonnull align 8 dereferenceable(32) %5)
  %6 = load i64, ptr %3, align 8
  %7 = add i64 %6, 1
  store i64 %7, ptr %3, align 8
  %8 = load ptr, ptr %2, align 8
  call void @_ZN8TestCaseIhE11AddTestCaseERKN32pxrInternal_v0_24__pxrReserved__7UsdPrimE(ptr noundef nonnull align 8 dereferenceable(32) %8)
  %9 = load ptr, ptr %2, align 8
  call void @_ZN8TestCaseIN32pxrInternal_v0_24__pxrReserved__7VtArrayIhEEE11AddTestCaseERKNS0_7UsdPrimE(ptr noundef nonnull align 8 dereferenceable(32) %9)
  %10 = load i64, ptr %3, align 8
  %11 = add i64 %10, 1
  store i64 %11, ptr %3, align 8
  %12 = load ptr, ptr %2, align 8
  call void @_ZN8TestCaseIiE11AddTestCaseERKN32pxrInternal_v0_24__pxrReserved__7UsdPrimE(ptr noundef nonnull align 8 dereferenceable(32) %12)
  %13 = load ptr, ptr %2, align 8
  call void @_ZN8TestCaseIN32pxrInternal_v0_24__pxrReserved__7VtArrayIiEEE11AddTestCaseERKNS0_7UsdPrimE(ptr noundef nonnull align 8 dereferenceable(32) %13)
  %14 = load i64, ptr %3, align 8
  %15 = add i64 %14, 1
  store i64 %15, ptr %3, align 8
  %16 = load ptr, ptr %2, align 8
  call void @_ZN8TestCaseIjE11AddTestCaseERKN32pxrInternal_v0_24__pxrReserved__7UsdPrimE(ptr noundef nonnull align 8 dereferenceable(32) %16)
  %17 = load ptr, ptr %2, align 8
  call void @_ZN8TestCaseIN32pxrInternal_v0_24__pxrReserved__7VtArrayIjEEE11AddTestCaseERKNS0_7UsdPrimE(ptr noundef nonnull align 8 dereferenceable(32) %17)
  %18 = load i64, ptr %3, align 8
  %19 = add i64 %18, 1
  store i64 %19, ptr %3, align 8
  %20 = load ptr, ptr %2, align 8
  call void @_ZN8TestCaseIlE11AddTestCaseERKN32pxrInternal_v0_24__pxrReserved__7UsdPrimE(ptr noundef nonnull align 8 dereferenceable(32) %20)
  %21 = load ptr, ptr %2, align 8
  call void @_ZN8TestCaseIN32pxrInternal_v0_24__pxrReserved__7VtArrayIlEEE11AddTestCaseERKNS0_7UsdPrimE(ptr noundef nonnull align 8 dereferenceable(32) %21)
  %22 = load i64, ptr %3, align 8
  %23 = add i64 %22, 1
  store i64 %23, ptr %3, align 8
  %24 = load ptr, ptr %2, align 8
  call void @_ZN8TestCaseImE11AddTestCaseERKN32pxrInternal_v0_24__pxrReserved__7UsdPrimE(ptr noundef nonnull align 8 dereferenceable(32) %24)
  %25 = load ptr, ptr %2, align 8
  call void @_ZN8TestCaseIN32pxrInternal_v0_24__pxrReserved__7VtArrayImEEE11AddTestCaseERKNS0_7UsdPrimE(ptr noundef nonnull align 8 dereferenceable(32) %25)
  %26 = load i64, ptr %3, align 8
  %27 = add i64 %26, 1
  store i64 %27, ptr %3, align 8
  %28 = load ptr, ptr %2, align 8
  call void @_ZN8TestCaseIN32pxrInternal_v0_24__pxrReserved__8pxr_half4halfEE11AddTestCaseERKNS0_7UsdPrimE(ptr noundef nonnull align 8 dereferenceable(32) %28)
  %29 = load ptr, ptr %2, align 8
  call void @_ZN8TestCaseIN32pxrInternal_v0_24__pxrReserved__7VtArrayINS0_8pxr_half4halfEEEE11AddTestCaseERKNS0_7UsdPrimE(ptr noundef nonnull align 8 dereferenceable(32) %29)
  %30 = load i64, ptr %3, align 8
  %31 = add i64 %30, 1
  store i64 %31, ptr %3, align 8
  %32 = load ptr, ptr %2, align 8
  call void @_ZN8TestCaseIfE11AddTestCaseERKN32pxrInternal_v0_24__pxrReserved__7UsdPrimE(ptr noundef nonnull align 8 dereferenceable(32) %32)
  %33 = load ptr, ptr %2, align 8
  call void @_ZN8TestCaseIN32pxrInternal_v0_24__pxrReserved__7VtArrayIfEEE11AddTestCaseERKNS0_7UsdPrimE(ptr noundef nonnull align 8 dereferenceable(32) %33)
  %34 = load i64, ptr %3, align 8
  %35 = add i64 %34, 1
  store i64 %35, ptr %3, align 8
  %36 = load ptr, ptr %2, align 8
  call void @_ZN8TestCaseIdE11AddTestCaseERKN32pxrInternal_v0_24__pxrReserved__7UsdPrimE(ptr noundef nonnull align 8 dereferenceable(32) %36)
  %37 = load ptr, ptr %2, align 8
  call void @_ZN8TestCaseIN32pxrInternal_v0_24__pxrReserved__7VtArrayIdEEE11AddTestCaseERKNS0_7UsdPrimE(ptr noundef nonnull align 8 dereferenceable(32) %37)
  %38 = load i64, ptr %3, align 8
  %39 = add i64 %38, 1
  store i64 %39, ptr %3, align 8
  %40 = load ptr, ptr %2, align 8
  call void @_ZN8TestCaseIN32pxrInternal_v0_24__pxrReserved__11SdfTimeCodeEE11AddTestCaseERKNS0_7UsdPrimE(ptr noundef nonnull align 8 dereferenceable(32) %40)
  %41 = load ptr, ptr %2, align 8
  call void @_ZN8TestCaseIN32pxrInternal_v0_24__pxrReserved__7VtArrayINS0_11SdfTimeCodeEEEE11AddTestCaseERKNS0_7UsdPrimE(ptr noundef nonnull align 8 dereferenceable(32) %41)
  %42 = load i64, ptr %3, align 8
  %43 = add i64 %42, 1
  store i64 %43, ptr %3, align 8
  %44 = load ptr, ptr %2, align 8
  call void @_ZN8TestCaseINSt7__cxx1112basic_stringIcSt11char_traitsIcESaIcEEEE11AddTestCaseERKN32pxrInternal_v0_24__pxrReserved__7UsdPrimE(ptr noundef nonnull align 8 dereferenceable(32) %44)
  %45 = load ptr, ptr %2, align 8
  call void @_ZN8TestCaseIN32pxrInternal_v0_24__pxrReserved__7VtArrayINSt7__cxx1112basic_stringIcSt11char_traitsIcESaIcEEEEEE11AddTestCaseERKNS0_7UsdPrimE(ptr noundef nonnull align 8 dereferenceable(32) %45)
  %46 = load i64, ptr %3, align 8
  %47 = add i64 %46, 1
  store i64 %47, ptr %3, align 8
  %48 = load ptr, ptr %2, align 8
  call void @_ZN8TestCaseIN32pxrInternal_v0_24__pxrReserved__7TfTokenEE11AddTestCaseERKNS0_7UsdPrimE(ptr noundef nonnull align 8 dereferenceable(32) %48)
  %49 = load ptr, ptr %2, align 8
  call void @_ZN8TestCaseIN32pxrInternal_v0_24__pxrReserved__7VtArrayINS0_7TfTokenEEEE11AddTestCaseERKNS0_7UsdPrimE(ptr noundef nonnull align 8 dereferenceable(32) %49)
  %50 = load i64, ptr %3, align 8
  %51 = add i64 %50, 1
  store i64 %51, ptr %3, align 8
  %52 = load ptr, ptr %2, align 8
  call void @_ZN8TestCaseIN32pxrInternal_v0_24__pxrReserved__12SdfAssetPathEE11AddTestCaseERKNS0_7UsdPrimE(ptr noundef nonnull align 8 dereferenceable(32) %52)
  %53 = load ptr, ptr %2, align 8
  call void @_ZN8TestCaseIN32pxrInternal_v0_24__pxrReserved__7VtArrayINS0_12SdfAssetPathEEEE11AddTestCaseERKNS0_7UsdPrimE(ptr noundef nonnull align 8 dereferenceable(32) %53)
  %54 = load i64, ptr %3, align 8
  %55 = add i64 %54, 1
  store i64 %55, ptr %3, align 8
  %56 = load ptr, ptr %2, align 8
  call void @_ZN8TestCaseIN32pxrInternal_v0_24__pxrReserved__14SdfOpaqueValueEE11AddTestCaseERKNS0_7UsdPrimE(ptr noundef nonnull align 8 dereferenceable(32) %56)
  %57 = load ptr, ptr %2, align 8
  call void @_ZN8TestCaseIN32pxrInternal_v0_24__pxrReserved__7VtArrayINS0_14SdfOpaqueValueEEEE11AddTestCaseERKNS0_7UsdPrimE(ptr noundef nonnull align 8 dereferenceable(32) %57)
  %58 = load i64, ptr %3, align 8
  %59 = add i64 %58, 1
  store i64 %59, ptr %3, align 8
  %60 = load ptr, ptr %2, align 8
  call void @_ZN8TestCaseIN32pxrInternal_v0_24__pxrReserved__17SdfPathExpressionEE11AddTestCaseERKNS0_7UsdPrimE(ptr noundef nonnull align 8 dereferenceable(32) %60)
  %61 = load ptr, ptr %2, align 8
  call void @_ZN8TestCaseIN32pxrInternal_v0_24__pxrReserved__7VtArrayINS0_17SdfPathExpressionEEEE11AddTestCaseERKNS0_7UsdPrimE(ptr noundef nonnull align 8 dereferenceable(32) %61)
  %62 = load i64, ptr %3, align 8
  %63 = add i64 %62, 1
  store i64 %63, ptr %3, align 8
  %64 = load ptr, ptr %2, align 8
  call void @_ZN8TestCaseIN32pxrInternal_v0_24__pxrReserved__10GfMatrix2dEE11AddTestCaseERKNS0_7UsdPrimE(ptr noundef nonnull align 8 dereferenceable(32) %64)
  %65 = load ptr, ptr %2, align 8
  call void @_ZN8TestCaseIN32pxrInternal_v0_24__pxrReserved__7VtArrayINS0_10GfMatrix2dEEEE11AddTestCaseERKNS0_7UsdPrimE(ptr noundef nonnull align 8 dereferenceable(32) %65)
  %66 = load i64, ptr %3, align 8
  %67 = add i64 %66, 1
  store i64 %67, ptr %3, align 8
  %68 = load ptr, ptr %2, align 8
  call void @_ZN8TestCaseIN32pxrInternal_v0_24__pxrReserved__10GfMatrix3dEE11AddTestCaseERKNS0_7UsdPrimE(ptr noundef nonnull align 8 dereferenceable(32) %68)
  %69 = load ptr, ptr %2, align 8
  call void @_ZN8TestCaseIN32pxrInternal_v0_24__pxrReserved__7VtArrayINS0_10GfMatrix3dEEEE11AddTestCaseERKNS0_7UsdPrimE(ptr noundef nonnull align 8 dereferenceable(32) %69)
  %70 = load i64, ptr %3, align 8
  %71 = add i64 %70, 1
  store i64 %71, ptr %3, align 8
  %72 = load ptr, ptr %2, align 8
  call void @_ZN8TestCaseIN32pxrInternal_v0_24__pxrReserved__10GfMatrix4dEE11AddTestCaseERKNS0_7UsdPrimE(ptr noundef nonnull align 8 dereferenceable(32) %72)
  %73 = load ptr, ptr %2, align 8
  call void @_ZN8TestCaseIN32pxrInternal_v0_24__pxrReserved__7VtArrayINS0_10GfMatrix4dEEEE11AddTestCaseERKNS0_7UsdPrimE(ptr noundef nonnull align 8 dereferenceable(32) %73)
  %74 = load i64, ptr %3, align 8
  %75 = add i64 %74, 1
  store i64 %75, ptr %3, align 8
  %76 = load ptr, ptr %2, align 8
  call void @_ZN8TestCaseIN32pxrInternal_v0_24__pxrReserved__7GfQuathEE11AddTestCaseERKNS0_7UsdPrimE(ptr noundef nonnull align 8 dereferenceable(32) %76)
  %77 = load ptr, ptr %2, align 8
  call void @_ZN8TestCaseIN32pxrInternal_v0_24__pxrReserved__7VtArrayINS0_7GfQuathEEEE11AddTestCaseERKNS0_7UsdPrimE(ptr noundef nonnull align 8 dereferenceable(32) %77)
  %78 = load i64, ptr %3, align 8
  %79 = add i64 %78, 1
  store i64 %79, ptr %3, align 8
  %80 = load ptr, ptr %2, align 8
  call void @_ZN8TestCaseIN32pxrInternal_v0_24__pxrReserved__7GfQuatfEE11AddTestCaseERKNS0_7UsdPrimE(ptr noundef nonnull align 8 dereferenceable(32) %80)
  %81 = load ptr, ptr %2, align 8
  call void @_ZN8TestCaseIN32pxrInternal_v0_24__pxrReserved__7VtArrayINS0_7GfQuatfEEEE11AddTestCaseERKNS0_7UsdPrimE(ptr noundef nonnull align 8 dereferenceable(32) %81)
  %82 = load i64, ptr %3, align 8
  %83 = add i64 %82, 1
  store i64 %83, ptr %3, align 8
  %84 = load ptr, ptr %2, align 8
  call void @_ZN8TestCaseIN32pxrInternal_v0_24__pxrReserved__7GfQuatdEE11AddTestCaseERKNS0_7UsdPrimE(ptr noundef nonnull align 8 dereferenceable(32) %84)
  %85 = load ptr, ptr %2, align 8
  call void @_ZN8TestCaseIN32pxrInternal_v0_24__pxrReserved__7VtArrayINS0_7GfQuatdEEEE11AddTestCaseERKNS0_7UsdPrimE(ptr noundef nonnull align 8 dereferenceable(32) %85)
  %86 = load i64, ptr %3, align 8
  %87 = add i64 %86, 1
  store i64 %87, ptr %3, align 8
  %88 = load ptr, ptr %2, align 8
  call void @_ZN8TestCaseIN32pxrInternal_v0_24__pxrReserved__7GfVec2iEE11AddTestCaseERKNS0_7UsdPrimE(ptr noundef nonnull align 8 dereferenceable(32) %88)
  %89 = load ptr, ptr %2, align 8
  call void @_ZN8TestCaseIN32pxrInternal_v0_24__pxrReserved__7VtArrayINS0_7GfVec2iEEEE11AddTestCaseERKNS0_7UsdPrimE(ptr noundef nonnull align 8 dereferenceable(32) %89)
  %90 = load i64, ptr %3, align 8
  %91 = add i64 %90, 1
  store i64 %91, ptr %3, align 8
  %92 = load ptr, ptr %2, align 8
  call void @_ZN8TestCaseIN32pxrInternal_v0_24__pxrReserved__7GfVec2hEE11AddTestCaseERKNS0_7UsdPrimE(ptr noundef nonnull align 8 dereferenceable(32) %92)
  %93 = load ptr, ptr %2, align 8
  call void @_ZN8TestCaseIN32pxrInternal_v0_24__pxrReserved__7VtArrayINS0_7GfVec2hEEEE11AddTestCaseERKNS0_7UsdPrimE(ptr noundef nonnull align 8 dereferenceable(32) %93)
  %94 = load i64, ptr %3, align 8
  %95 = add i64 %94, 1
  store i64 %95, ptr %3, align 8
  %96 = load ptr, ptr %2, align 8
  call void @_ZN8TestCaseIN32pxrInternal_v0_24__pxrReserved__7GfVec2fEE11AddTestCaseERKNS0_7UsdPrimE(ptr noundef nonnull align 8 dereferenceable(32) %96)
  %97 = load ptr, ptr %2, align 8
  call void @_ZN8TestCaseIN32pxrInternal_v0_24__pxrReserved__7VtArrayINS0_7GfVec2fEEEE11AddTestCaseERKNS0_7UsdPrimE(ptr noundef nonnull align 8 dereferenceable(32) %97)
  %98 = load i64, ptr %3, align 8
  %99 = add i64 %98, 1
  store i64 %99, ptr %3, align 8
  %100 = load ptr, ptr %2, align 8
  call void @_ZN8TestCaseIN32pxrInternal_v0_24__pxrReserved__7GfVec2dEE11AddTestCaseERKNS0_7UsdPrimE(ptr noundef nonnull align 8 dereferenceable(32) %100)
  %101 = load ptr, ptr %2, align 8
  call void @_ZN8TestCaseIN32pxrInternal_v0_24__pxrReserved__7VtArrayINS0_7GfVec2dEEEE11AddTestCaseERKNS0_7UsdPrimE(ptr noundef nonnull align 8 dereferenceable(32) %101)
  %102 = load i64, ptr %3, align 8
  %103 = add i64 %102, 1
  store i64 %103, ptr %3, align 8
  %104 = load ptr, ptr %2, align 8
  call void @_ZN8TestCaseIN32pxrInternal_v0_24__pxrReserved__7GfVec3iEE11AddTestCaseERKNS0_7UsdPrimE(ptr noundef nonnull align 8 dereferenceable(32) %104)
  %105 = load ptr, ptr %2, align 8
  call void @_ZN8TestCaseIN32pxrInternal_v0_24__pxrReserved__7VtArrayINS0_7GfVec3iEEEE11AddTestCaseERKNS0_7UsdPrimE(ptr noundef nonnull align 8 dereferenceable(32) %105)
  %106 = load i64, ptr %3, align 8
  %107 = add i64 %106, 1
  store i64 %107, ptr %3, align 8
  %108 = load ptr, ptr %2, align 8
  call void @_ZN8TestCaseIN32pxrInternal_v0_24__pxrReserved__7GfVec3hEE11AddTestCaseERKNS0_7UsdPrimE(ptr noundef nonnull align 8 dereferenceable(32) %108)
  %109 = load ptr, ptr %2, align 8
  call void @_ZN8TestCaseIN32pxrInternal_v0_24__pxrReserved__7VtArrayINS0_7GfVec3hEEEE11AddTestCaseERKNS0_7UsdPrimE(ptr noundef nonnull align 8 dereferenceable(32) %109)
  %110 = load i64, ptr %3, align 8
  %111 = add i64 %110, 1
  store i64 %111, ptr %3, align 8
  %112 = load ptr, ptr %2, align 8
  call void @_ZN8TestCaseIN32pxrInternal_v0_24__pxrReserved__7GfVec3fEE11AddTestCaseERKNS0_7UsdPrimE(ptr noundef nonnull align 8 dereferenceable(32) %112)
  %113 = load ptr, ptr %2, align 8
  call void @_ZN8TestCaseIN32pxrInternal_v0_24__pxrReserved__7VtArrayINS0_7GfVec3fEEEE11AddTestCaseERKNS0_7UsdPrimE(ptr noundef nonnull align 8 dereferenceable(32) %113)
  %114 = load i64, ptr %3, align 8
  %115 = add i64 %114, 1
  store i64 %115, ptr %3, align 8
  %116 = load ptr, ptr %2, align 8
  call void @_ZN8TestCaseIN32pxrInternal_v0_24__pxrReserved__7GfVec3dEE11AddTestCaseERKNS0_7UsdPrimE(ptr noundef nonnull align 8 dereferenceable(32) %116)
  %117 = load ptr, ptr %2, align 8
  call void @_ZN8TestCaseIN32pxrInternal_v0_24__pxrReserved__7VtArrayINS0_7GfVec3dEEEE11AddTestCaseERKNS0_7UsdPrimE(ptr noundef nonnull align 8 dereferenceable(32) %117)
  %118 = load i64, ptr %3, align 8
  %119 = add i64 %118, 1
  store i64 %119, ptr %3, align 8
  %120 = load ptr, ptr %2, align 8
  call void @_ZN8TestCaseIN32pxrInternal_v0_24__pxrReserved__7GfVec4iEE11AddTestCaseERKNS0_7UsdPrimE(ptr noundef nonnull align 8 dereferenceable(32) %120)
  %121 = load ptr, ptr %2, align 8
  call void @_ZN8TestCaseIN32pxrInternal_v0_24__pxrReserved__7VtArrayINS0_7GfVec4iEEEE11AddTestCaseERKNS0_7UsdPrimE(ptr noundef nonnull align 8 dereferenceable(32) %121)
  %122 = load i64, ptr %3, align 8
  %123 = add i64 %122, 1
  store i64 %123, ptr %3, align 8
  %124 = load ptr, ptr %2, align 8
  call void @_ZN8TestCaseIN32pxrInternal_v0_24__pxrReserved__7GfVec4hEE11AddTestCaseERKNS0_7UsdPrimE(ptr noundef nonnull align 8 dereferenceable(32) %124)
  %125 = load ptr, ptr %2, align 8
  call void @_ZN8TestCaseIN32pxrInternal_v0_24__pxrReserved__7VtArrayINS0_7GfVec4hEEEE11AddTestCaseERKNS0_7UsdPrimE(ptr noundef nonnull align 8 dereferenceable(32) %125)
  %126 = load i64, ptr %3, align 8
  %127 = add i64 %126, 1
  store i64 %127, ptr %3, align 8
  %128 = load ptr, ptr %2, align 8
  call void @_ZN8TestCaseIN32pxrInternal_v0_24__pxrReserved__7GfVec4fEE11AddTestCaseERKNS0_7UsdPrimE(ptr noundef nonnull align 8 dereferenceable(32) %128)
  %129 = load ptr, ptr %2, align 8
  call void @_ZN8TestCaseIN32pxrInternal_v0_24__pxrReserved__7VtArrayINS0_7GfVec4fEEEE11AddTestCaseERKNS0_7UsdPrimE(ptr noundef nonnull align 8 dereferenceable(32) %129)
  %130 = load i64, ptr %3, align 8
  %131 = add i64 %130, 1
  store i64 %131, ptr %3, align 8
  %132 = load ptr, ptr %2, align 8
  call void @_ZN8TestCaseIN32pxrInternal_v0_24__pxrReserved__7GfVec4dEE11AddTestCaseERKNS0_7UsdPrimE(ptr noundef nonnull align 8 dereferenceable(32) %132)
  %133 = load ptr, ptr %2, align 8
  call void @_ZN8TestCaseIN32pxrInternal_v0_24__pxrReserved__7VtArrayINS0_7GfVec4dEEEE11AddTestCaseERKNS0_7UsdPrimE(ptr noundef nonnull align 8 dereferenceable(32) %133)
  %134 = load i64, ptr %3, align 8
  %135 = add i64 %134, 1
  store i64 %135, ptr %3, align 8
  %136 = load i64, ptr %3, align 8
  ret i64 %136
}