; Function Attrs: mustprogress norecurse uwtable
define internal fastcc void @_ZL18AddTestCasesToPrimRKN32pxrInternal_v0_24__pxrReserved__7UsdPrimE(ptr noundef nonnull align 8 dereferenceable(32) %0) unnamed_addr #0 {
  tail call void @_ZN8TestCaseIbE11AddTestCaseERKN32pxrInternal_v0_24__pxrReserved__7UsdPrimE(ptr noundef nonnull align 8 dereferenceable(32) %0)
  tail call void @_ZN8TestCaseIN32pxrInternal_v0_24__pxrReserved__7VtArrayIbEEE11AddTestCaseERKNS0_7UsdPrimE(ptr noundef nonnull align 8 dereferenceable(32) %0)
  tail call void @_ZN8TestCaseIhE11AddTestCaseERKN32pxrInternal_v0_24__pxrReserved__7UsdPrimE(ptr noundef nonnull align 8 dereferenceable(32) %0)
  tail call void @_ZN8TestCaseIN32pxrInternal_v0_24__pxrReserved__7VtArrayIhEEE11AddTestCaseERKNS0_7UsdPrimE(ptr noundef nonnull align 8 dereferenceable(32) %0)
  tail call void @_ZN8TestCaseIiE11AddTestCaseERKN32pxrInternal_v0_24__pxrReserved__7UsdPrimE(ptr noundef nonnull align 8 dereferenceable(32) %0)
  tail call void @_ZN8TestCaseIN32pxrInternal_v0_24__pxrReserved__7VtArrayIiEEE11AddTestCaseERKNS0_7UsdPrimE(ptr noundef nonnull align 8 dereferenceable(32) %0)
  tail call void @_ZN8TestCaseIjE11AddTestCaseERKN32pxrInternal_v0_24__pxrReserved__7UsdPrimE(ptr noundef nonnull align 8 dereferenceable(32) %0)
  tail call void @_ZN8TestCaseIN32pxrInternal_v0_24__pxrReserved__7VtArrayIjEEE11AddTestCaseERKNS0_7UsdPrimE(ptr noundef nonnull align 8 dereferenceable(32) %0)
  tail call void @_ZN8TestCaseIlE11AddTestCaseERKN32pxrInternal_v0_24__pxrReserved__7UsdPrimE(ptr noundef nonnull align 8 dereferenceable(32) %0)
  tail call void @_ZN8TestCaseIN32pxrInternal_v0_24__pxrReserved__7VtArrayIlEEE11AddTestCaseERKNS0_7UsdPrimE(ptr noundef nonnull align 8 dereferenceable(32) %0)
  tail call void @_ZN8TestCaseImE11AddTestCaseERKN32pxrInternal_v0_24__pxrReserved__7UsdPrimE(ptr noundef nonnull align 8 dereferenceable(32) %0)
  tail call void @_ZN8TestCaseIN32pxrInternal_v0_24__pxrReserved__7VtArrayImEEE11AddTestCaseERKNS0_7UsdPrimE(ptr noundef nonnull align 8 dereferenceable(32) %0)
  tail call void @_ZN8TestCaseIN32pxrInternal_v0_24__pxrReserved__8pxr_half4halfEE11AddTestCaseERKNS0_7UsdPrimE(ptr noundef nonnull align 8 dereferenceable(32) %0)
  tail call void @_ZN8TestCaseIN32pxrInternal_v0_24__pxrReserved__7VtArrayINS0_8pxr_half4halfEEEE11AddTestCaseERKNS0_7UsdPrimE(ptr noundef nonnull align 8 dereferenceable(32) %0)
  tail call void @_ZN8TestCaseIfE11AddTestCaseERKN32pxrInternal_v0_24__pxrReserved__7UsdPrimE(ptr noundef nonnull align 8 dereferenceable(32) %0)
  tail call void @_ZN8TestCaseIN32pxrInternal_v0_24__pxrReserved__7VtArrayIfEEE11AddTestCaseERKNS0_7UsdPrimE(ptr noundef nonnull align 8 dereferenceable(32) %0)
  tail call void @_ZN8TestCaseIdE11AddTestCaseERKN32pxrInternal_v0_24__pxrReserved__7UsdPrimE(ptr noundef nonnull align 8 dereferenceable(32) %0)
  tail call void @_ZN8TestCaseIN32pxrInternal_v0_24__pxrReserved__7VtArrayIdEEE11AddTestCaseERKNS0_7UsdPrimE(ptr noundef nonnull align 8 dereferenceable(32) %0)
  tail call void @_ZN8TestCaseIN32pxrInternal_v0_24__pxrReserved__11SdfTimeCodeEE11AddTestCaseERKNS0_7UsdPrimE(ptr noundef nonnull align 8 dereferenceable(32) %0)
  tail call void @_ZN8TestCaseIN32pxrInternal_v0_24__pxrReserved__7VtArrayINS0_11SdfTimeCodeEEEE11AddTestCaseERKNS0_7UsdPrimE(ptr noundef nonnull align 8 dereferenceable(32) %0)
  tail call void @_ZN8TestCaseINSt7__cxx1112basic_stringIcSt11char_traitsIcESaIcEEEE11AddTestCaseERKN32pxrInternal_v0_24__pxrReserved__7UsdPrimE(ptr noundef nonnull align 8 dereferenceable(32) %0)
  tail call void @_ZN8TestCaseIN32pxrInternal_v0_24__pxrReserved__7VtArrayINSt7__cxx1112basic_stringIcSt11char_traitsIcESaIcEEEEEE11AddTestCaseERKNS0_7UsdPrimE(ptr noundef nonnull align 8 dereferenceable(32) %0)
  tail call void @_ZN8TestCaseIN32pxrInternal_v0_24__pxrReserved__7TfTokenEE11AddTestCaseERKNS0_7UsdPrimE(ptr noundef nonnull align 8 dereferenceable(32) %0)
  tail call void @_ZN8TestCaseIN32pxrInternal_v0_24__pxrReserved__7VtArrayINS0_7TfTokenEEEE11AddTestCaseERKNS0_7UsdPrimE(ptr noundef nonnull align 8 dereferenceable(32) %0)
  tail call void @_ZN8TestCaseIN32pxrInternal_v0_24__pxrReserved__12SdfAssetPathEE11AddTestCaseERKNS0_7UsdPrimE(ptr noundef nonnull align 8 dereferenceable(32) %0)
  tail call void @_ZN8TestCaseIN32pxrInternal_v0_24__pxrReserved__7VtArrayINS0_12SdfAssetPathEEEE11AddTestCaseERKNS0_7UsdPrimE(ptr noundef nonnull align 8 dereferenceable(32) %0)
  tail call void @_ZN8TestCaseIN32pxrInternal_v0_24__pxrReserved__14SdfOpaqueValueEE11AddTestCaseERKNS0_7UsdPrimE(ptr noundef nonnull align 8 dereferenceable(32) %0)
  tail call void @_ZN8TestCaseIN32pxrInternal_v0_24__pxrReserved__17SdfPathExpressionEE11AddTestCaseERKNS0_7UsdPrimE(ptr noundef nonnull align 8 dereferenceable(32) %0)
  tail call void @_ZN8TestCaseIN32pxrInternal_v0_24__pxrReserved__10GfMatrix2dEE11AddTestCaseERKNS0_7UsdPrimE(ptr noundef nonnull align 8 dereferenceable(32) %0)
  tail call void @_ZN8TestCaseIN32pxrInternal_v0_24__pxrReserved__7VtArrayINS0_10GfMatrix2dEEEE11AddTestCaseERKNS0_7UsdPrimE(ptr noundef nonnull align 8 dereferenceable(32) %0)
  tail call void @_ZN8TestCaseIN32pxrInternal_v0_24__pxrReserved__10GfMatrix3dEE11AddTestCaseERKNS0_7UsdPrimE(ptr noundef nonnull align 8 dereferenceable(32) %0)
  tail call void @_ZN8TestCaseIN32pxrInternal_v0_24__pxrReserved__7VtArrayINS0_10GfMatrix3dEEEE11AddTestCaseERKNS0_7UsdPrimE(ptr noundef nonnull align 8 dereferenceable(32) %0)
  tail call void @_ZN8TestCaseIN32pxrInternal_v0_24__pxrReserved__10GfMatrix4dEE11AddTestCaseERKNS0_7UsdPrimE(ptr noundef nonnull align 8 dereferenceable(32) %0)
  tail call void @_ZN8TestCaseIN32pxrInternal_v0_24__pxrReserved__7VtArrayINS0_10GfMatrix4dEEEE11AddTestCaseERKNS0_7UsdPrimE(ptr noundef nonnull align 8 dereferenceable(32) %0)
  tail call void @_ZN8TestCaseIN32pxrInternal_v0_24__pxrReserved__7GfQuathEE11AddTestCaseERKNS0_7UsdPrimE(ptr noundef nonnull align 8 dereferenceable(32) %0)
  tail call void @_ZN8TestCaseIN32pxrInternal_v0_24__pxrReserved__7VtArrayINS0_7GfQuathEEEE11AddTestCaseERKNS0_7UsdPrimE(ptr noundef nonnull align 8 dereferenceable(32) %0)
  tail call void @_ZN8TestCaseIN32pxrInternal_v0_24__pxrReserved__7GfQuatfEE11AddTestCaseERKNS0_7UsdPrimE(ptr noundef nonnull align 8 dereferenceable(32) %0)
  tail call void @_ZN8TestCaseIN32pxrInternal_v0_24__pxrReserved__7VtArrayINS0_7GfQuatfEEEE11AddTestCaseERKNS0_7UsdPrimE(ptr noundef nonnull align 8 dereferenceable(32) %0)
  tail call void @_ZN8TestCaseIN32pxrInternal_v0_24__pxrReserved__7GfQuatdEE11AddTestCaseERKNS0_7UsdPrimE(ptr noundef nonnull align 8 dereferenceable(32) %0)
  tail call void @_ZN8TestCaseIN32pxrInternal_v0_24__pxrReserved__7VtArrayINS0_7GfQuatdEEEE11AddTestCaseERKNS0_7UsdPrimE(ptr noundef nonnull align 8 dereferenceable(32) %0)
  tail call void @_ZN8TestCaseIN32pxrInternal_v0_24__pxrReserved__7GfVec2iEE11AddTestCaseERKNS0_7UsdPrimE(ptr noundef nonnull align 8 dereferenceable(32) %0)
  tail call void @_ZN8TestCaseIN32pxrInternal_v0_24__pxrReserved__7VtArrayINS0_7GfVec2iEEEE11AddTestCaseERKNS0_7UsdPrimE(ptr noundef nonnull align 8 dereferenceable(32) %0)
  tail call void @_ZN8TestCaseIN32pxrInternal_v0_24__pxrReserved__7GfVec2hEE11AddTestCaseERKNS0_7UsdPrimE(ptr noundef nonnull align 8 dereferenceable(32) %0)
  tail call void @_ZN8TestCaseIN32pxrInternal_v0_24__pxrReserved__7VtArrayINS0_7GfVec2hEEEE11AddTestCaseERKNS0_7UsdPrimE(ptr noundef nonnull align 8 dereferenceable(32) %0)
  tail call void @_ZN8TestCaseIN32pxrInternal_v0_24__pxrReserved__7GfVec2fEE11AddTestCaseERKNS0_7UsdPrimE(ptr noundef nonnull align 8 dereferenceable(32) %0)
  tail call void @_ZN8TestCaseIN32pxrInternal_v0_24__pxrReserved__7VtArrayINS0_7GfVec2fEEEE11AddTestCaseERKNS0_7UsdPrimE(ptr noundef nonnull align 8 dereferenceable(32) %0)
  tail call void @_ZN8TestCaseIN32pxrInternal_v0_24__pxrReserved__7GfVec2dEE11AddTestCaseERKNS0_7UsdPrimE(ptr noundef nonnull align 8 dereferenceable(32) %0)
  tail call void @_ZN8TestCaseIN32pxrInternal_v0_24__pxrReserved__7VtArrayINS0_7GfVec2dEEEE11AddTestCaseERKNS0_7UsdPrimE(ptr noundef nonnull align 8 dereferenceable(32) %0)
  tail call void @_ZN8TestCaseIN32pxrInternal_v0_24__pxrReserved__7GfVec3iEE11AddTestCaseERKNS0_7UsdPrimE(ptr noundef nonnull align 8 dereferenceable(32) %0)
  tail call void @_ZN8TestCaseIN32pxrInternal_v0_24__pxrReserved__7VtArrayINS0_7GfVec3iEEEE11AddTestCaseERKNS0_7UsdPrimE(ptr noundef nonnull align 8 dereferenceable(32) %0)
  tail call void @_ZN8TestCaseIN32pxrInternal_v0_24__pxrReserved__7GfVec3hEE11AddTestCaseERKNS0_7UsdPrimE(ptr noundef nonnull align 8 dereferenceable(32) %0)
  tail call void @_ZN8TestCaseIN32pxrInternal_v0_24__pxrReserved__7VtArrayINS0_7GfVec3hEEEE11AddTestCaseERKNS0_7UsdPrimE(ptr noundef nonnull align 8 dereferenceable(32) %0)
  tail call void @_ZN8TestCaseIN32pxrInternal_v0_24__pxrReserved__7GfVec3fEE11AddTestCaseERKNS0_7UsdPrimE(ptr noundef nonnull align 8 dereferenceable(32) %0)
  tail call void @_ZN8TestCaseIN32pxrInternal_v0_24__pxrReserved__7VtArrayINS0_7GfVec3fEEEE11AddTestCaseERKNS0_7UsdPrimE(ptr noundef nonnull align 8 dereferenceable(32) %0)
  tail call void @_ZN8TestCaseIN32pxrInternal_v0_24__pxrReserved__7GfVec3dEE11AddTestCaseERKNS0_7UsdPrimE(ptr noundef nonnull align 8 dereferenceable(32) %0)
  tail call void @_ZN8TestCaseIN32pxrInternal_v0_24__pxrReserved__7VtArrayINS0_7GfVec3dEEEE11AddTestCaseERKNS0_7UsdPrimE(ptr noundef nonnull align 8 dereferenceable(32) %0)
  tail call void @_ZN8TestCaseIN32pxrInternal_v0_24__pxrReserved__7GfVec4iEE11AddTestCaseERKNS0_7UsdPrimE(ptr noundef nonnull align 8 dereferenceable(32) %0)
  tail call void @_ZN8TestCaseIN32pxrInternal_v0_24__pxrReserved__7VtArrayINS0_7GfVec4iEEEE11AddTestCaseERKNS0_7UsdPrimE(ptr noundef nonnull align 8 dereferenceable(32) %0)
  tail call void @_ZN8TestCaseIN32pxrInternal_v0_24__pxrReserved__7GfVec4hEE11AddTestCaseERKNS0_7UsdPrimE(ptr noundef nonnull align 8 dereferenceable(32) %0)
  tail call void @_ZN8TestCaseIN32pxrInternal_v0_24__pxrReserved__7VtArrayINS0_7GfVec4hEEEE11AddTestCaseERKNS0_7UsdPrimE(ptr noundef nonnull align 8 dereferenceable(32) %0)
  tail call void @_ZN8TestCaseIN32pxrInternal_v0_24__pxrReserved__7GfVec4fEE11AddTestCaseERKNS0_7UsdPrimE(ptr noundef nonnull align 8 dereferenceable(32) %0)
  tail call void @_ZN8TestCaseIN32pxrInternal_v0_24__pxrReserved__7VtArrayINS0_7GfVec4fEEEE11AddTestCaseERKNS0_7UsdPrimE(ptr noundef nonnull align 8 dereferenceable(32) %0)
  tail call void @_ZN8TestCaseIN32pxrInternal_v0_24__pxrReserved__7GfVec4dEE11AddTestCaseERKNS0_7UsdPrimE(ptr noundef nonnull align 8 dereferenceable(32) %0)
  tail call void @_ZN8TestCaseIN32pxrInternal_v0_24__pxrReserved__7VtArrayINS0_7GfVec4dEEEE11AddTestCaseERKNS0_7UsdPrimE(ptr noundef nonnull align 8 dereferenceable(32) %0)
  ret void
}